; Function Attrs: mustprogress nofree norecurse nosync nounwind willreturn memory(readwrite, inaccessiblemem: none) uwtable
define dso_local void @Curl_ssl_conn_config_update(ptr noundef readonly captures(none) %0, i1 noundef zeroext %1) local_unnamed_addr #3 {
  %3 = getelementptr inbounds nuw i8, ptr %0, i64 32
  %4 = load ptr, ptr %3, align 8
  %.not = icmp eq ptr %4, null
  br i1 %.not, label %23, label %5

5:                                                ; preds = %2
  %.v = select i1 %1, i64 1456, i64 1272
  %6 = getelementptr inbounds nuw i8, ptr %0, i64 %.v
  %. = select i1 %1, i64 560, i64 448
  %7 = getelementptr inbounds nuw i8, ptr %4, i64 %.
  %8 = getelementptr inbounds nuw i8, ptr %6, i64 105
  %9 = load i8, ptr %8, align 1
  %10 = and i8 %9, 2
  %11 = getelementptr inbounds nuw i8, ptr %7, i64 105
  %12 = load i8, ptr %11, align 1
  %13 = and i8 %12, -3
  %14 = or disjoint i8 %13, %10
  store i8 %14, ptr %11, align 1
  %15 = load i8, ptr %8, align 1
  %16 = and i8 %15, 1
  %17 = and i8 %14, -2
  %18 = or disjoint i8 %17, %16
  store i8 %18, ptr %11, align 1
  %19 = load i8, ptr %8, align 1
  %20 = and i8 %19, 4
  %21 = and i8 %18, -5
  %22 = or disjoint i8 %21, %20
  store i8 %22, ptr %11, align 1
  br label %23

23:                                               ; preds = %5, %2
  ret void
}